; Function Attrs: nounwind uwtable
define ptr @l_Lake_GitRepo_clone(ptr noundef %0, ptr noundef %1, ptr noundef %2, ptr noundef %3) local_unnamed_addr #0 {
  tail call void @lean_inc_heartbeat() #3
  %5 = tail call noalias ptr @mi_malloc_small(i64 noundef 24) #3
  %6 = icmp eq ptr %5, null
  br i1 %6, label %7, label %lean_alloc_ctor.exit

7:                                                ; preds = %4
  tail call void @lean_internal_panic_out_of_memory() #4
  unreachable

lean_alloc_ctor.exit:                             ; preds = %4
  %8 = getelementptr inbounds nuw i8, ptr %5, i64 4
  store i32 1, ptr %5, align 4, !tbaa !8
  store i32 16908312, ptr %8, align 4
  %9 = getelementptr inbounds nuw i8, ptr %5, i64 8
  store ptr %1, ptr %9, align 8, !tbaa !12
  %10 = getelementptr inbounds nuw i8, ptr %5, i64 16
  store ptr inttoptr (i64 1 to ptr), ptr %10, align 8, !tbaa !12
  tail call void @lean_inc_heartbeat() #3
  %11 = tail call noalias ptr @mi_malloc_small(i64 noundef 24) #3
  %12 = icmp eq ptr %11, null
  br i1 %12, label %13, label %lean_alloc_ctor.exit31

13:                                               ; preds = %lean_alloc_ctor.exit
  tail call void @lean_internal_panic_out_of_memory() #4
  unreachable

lean_alloc_ctor.exit31:                           ; preds = %lean_alloc_ctor.exit
  %14 = getelementptr inbounds nuw i8, ptr %11, i64 4
  store i32 1, ptr %11, align 4, !tbaa !8
  store i32 16908312, ptr %14, align 4
  %15 = getelementptr inbounds nuw i8, ptr %11, i64 8
  store ptr %0, ptr %15, align 8, !tbaa !12
  %16 = getelementptr inbounds nuw i8, ptr %11, i64 16
  store ptr %5, ptr %16, align 8, !tbaa !12
  %17 = load ptr, ptr @l_Lake_GitRepo_clone___closed__1, align 8, !tbaa !12
  tail call void @lean_inc_heartbeat() #3
  %18 = tail call noalias ptr @mi_malloc_small(i64 noundef 24) #3
  %19 = icmp eq ptr %18, null
  br i1 %19, label %20, label %lean_alloc_ctor.exit32

20:                                               ; preds = %lean_alloc_ctor.exit31
  tail call void @lean_internal_panic_out_of_memory() #4
  unreachable

lean_alloc_ctor.exit32:                           ; preds = %lean_alloc_ctor.exit31
  %21 = getelementptr inbounds nuw i8, ptr %18, i64 4
  store i32 1, ptr %18, align 4, !tbaa !8
  store i32 16908312, ptr %21, align 4
  %22 = getelementptr inbounds nuw i8, ptr %18, i64 8
  store ptr %17, ptr %22, align 8, !tbaa !12
  %23 = getelementptr inbounds nuw i8, ptr %18, i64 16
  store ptr %11, ptr %23, align 8, !tbaa !12
  %24 = tail call ptr @lean_array_mk(ptr noundef nonnull %18) #3
  %25 = load ptr, ptr @l_Lake_GitRepo_captureGit_x3f___closed__1, align 8, !tbaa !12
  %26 = load ptr, ptr @l_Lake_Git_filterUrl_x3f___closed__1, align 8, !tbaa !12
  %27 = load ptr, ptr @l_Lake_GitRepo_captureGit_x3f___closed__2, align 8, !tbaa !12
  tail call void @lean_inc_heartbeat() #3
  %28 = tail call noalias ptr @mi_malloc_small(i64 noundef 56) #3
  %29 = icmp eq ptr %28, null
  br i1 %29, label %30, label %lean_alloc_ctor.exit33

30:                                               ; preds = %lean_alloc_ctor.exit32
  tail call void @lean_internal_panic_out_of_memory() #4
  unreachable

lean_alloc_ctor.exit33:                           ; preds = %lean_alloc_ctor.exit32
  %31 = getelementptr inbounds nuw i8, ptr %28, i64 4
  %32 = getelementptr inbounds nuw i8, ptr %28, i64 48
  store i64 1, ptr %32, align 8, !tbaa !4
  store i32 1, ptr %28, align 4, !tbaa !8
  store i32 327736, ptr %31, align 4
  %33 = getelementptr inbounds nuw i8, ptr %28, i64 8
  store ptr %25, ptr %33, align 8, !tbaa !12
  %34 = getelementptr inbounds nuw i8, ptr %28, i64 16
  store ptr %26, ptr %34, align 8, !tbaa !12
  %35 = getelementptr inbounds nuw i8, ptr %28, i64 24
  store ptr %24, ptr %35, align 8, !tbaa !12
  %36 = getelementptr inbounds nuw i8, ptr %28, i64 32
  store ptr inttoptr (i64 1 to ptr), ptr %36, align 8, !tbaa !12
  %37 = getelementptr inbounds nuw i8, ptr %28, i64 40
  store ptr %27, ptr %37, align 8, !tbaa !12
  %38 = tail call ptr @l_Lake_proc(ptr noundef nonnull %28, i8 noundef zeroext 1, ptr noundef %2, ptr noundef %3) #3
  ret ptr %38
}